target datalayout = "e-m:e-p270:32:32-p271:32:32-p272:64:64-i64:64-i128:128-f80:128-n8:16:32:64-S128"
target triple = "x86_64-unknown-linux-gnu"

%"class.proxygen::Sampling" = type <{ ptr, double, i32, [4 x i8] }>
%"class.google::LogMessageVoidify" = type { i8 }
%"class.google::LogMessageFatal" = type { %"class.google::LogMessage" }
%"class.google::LogMessage" = type { ptr, ptr, %"struct.google::LogMessageTime" }
%"struct.google::LogMessageTime" = type { %struct.tm, i64, i32, i64 }
%struct.tm = type { i32, i32, i32, i32, i32, i32, i32, i32, i32, i64, ptr }

@_ZTVN8proxygen8SamplingE = unnamed_addr constant { [4 x ptr] } { [4 x ptr] [ptr null, ptr @_ZTIN8proxygen8SamplingE, ptr @_ZN8proxygen8SamplingD1Ev, ptr @_ZN8proxygen8SamplingD0Ev] }, align 8
@.str = private unnamed_addr constant [130 x i8] c"generated/home/dtcxzyw/WorkSpace/Projects/compilers/llvm-opt-benchmark/bench/proxygen/proxygen/proxygen/lib/sampling/Sampling.cpp\00", align 1
@.str.1 = private unnamed_addr constant [42 x i8] c"Check failed: rate >= 0.0 && rate <= 1.0 \00", align 1

; Function Attrs: mustprogress nounwind uwtable
define noundef i32 @_ZN8proxygen8Sampling12rateToWeightEd(double noundef %rate) #1 align 2 {
entry:
  %retval = alloca i32, align 4
  %rate.addr = alloca double, align 8
  %scaledRate = alloca i32, align 4
  store double %rate, ptr %rate.addr, align 8
  %0 = load double, ptr %rate.addr, align 8
  %mul = fmul double 1.000000e+06, %0
  %conv = fptoui double %mul to i32
  store i32 %conv, ptr %scaledRate, align 4
  %1 = load i32, ptr %scaledRate, align 4
  %cmp = icmp eq i32 %1, 0
  br i1 %cmp, label %if.then, label %if.end

if.then:                                          ; preds = %entry
  store i32 0, ptr %retval, align 4
  br label %return

if.end:                                           ; preds = %entry
  %2 = load i32, ptr %scaledRate, align 4
  %div = udiv i32 1000000, %2
  store i32 %div, ptr %retval, align 4
  br label %return

return:                                           ; preds = %if.end, %if.then
  %3 = load i32, ptr %retval, align 4
  ret i32 %3
}

; Function Attrs: mustprogress nounwind uwtable
define linkonce_odr void @_ZN6google17LogMessageVoidifyanERSo(ptr noundef nonnull align 1 dereferenceable(1) %this, ptr noundef nonnull align 8 dereferenceable(8) %0) #1 comdat align 2 {
entry:
  %this.addr = alloca ptr, align 8
  %.addr = alloca ptr, align 8
  store ptr %this, ptr %this.addr, align 8
  store ptr %0, ptr %.addr, align 8
  ret void
}

; Function Attrs: mustprogress nounwind uwtable
define linkonce_odr void @_ZN6google17LogMessageVoidifyC2Ev(ptr noundef nonnull align 1 dereferenceable(1) %this) unnamed_addr #1 comdat align 2 {
entry:
  %this.addr = alloca ptr, align 8
  store ptr %this, ptr %this.addr, align 8
  ret void
}

; Function Attrs: mustprogress uwtable
define void @_ZN8proxygen8Sampling10updateRateEd(ptr noundef nonnull align 8 dereferenceable(20) %this, double noundef %rate) #0 align 2 personality ptr @__gxx_personality_v0 {
entry:
  %this.addr = alloca ptr, align 8
  %rate.addr = alloca double, align 8
  %ref.tmp = alloca %"class.google::LogMessageVoidify", align 1
  %ref.tmp3 = alloca %"class.google::LogMessageFatal", align 8
  %cleanup.cond = alloca i1, align 1
  %exn.slot = alloca ptr, align 8
  %ehselector.slot = alloca i32, align 4
  store ptr %this, ptr %this.addr, align 8
  store double %rate, ptr %rate.addr, align 8
  %this1 = load ptr, ptr %this.addr, align 8
  %0 = load double, ptr %rate.addr, align 8
  %cmp = fcmp oge double %0, 0.000000e+00
  store i1 false, ptr %cleanup.cond, align 1
  br i1 %cmp, label %land.rhs, label %land.end

land.rhs:                                         ; preds = %entry
  %1 = load double, ptr %rate.addr, align 8
  %cmp2 = fcmp ole double %1, 1.000000e+00
  br label %land.end

land.end:                                         ; preds = %land.rhs, %entry
  %2 = phi i1 [ false, %entry ], [ %cmp2, %land.rhs ]
  %lnot = xor i1 %2, true
  br i1 %lnot, label %cond.false, label %cond.true

cond.true:                                        ; preds = %land.end
  br label %cond.end

cond.false:                                       ; preds = %land.end
  call void @_ZN6google17LogMessageVoidifyC2Ev(ptr noundef nonnull align 1 dereferenceable(1) %ref.tmp)
  call void @_ZN6google15LogMessageFatalC1EPKci(ptr noundef nonnull align 8 dereferenceable(96) %ref.tmp3, ptr noundef @.str, i32 noundef 27)
  store i1 true, ptr %cleanup.cond, align 1
  %call = invoke noundef nonnull align 8 dereferenceable(8) ptr @_ZN6google10LogMessage6streamEv(ptr noundef nonnull align 8 dereferenceable(96) %ref.tmp3)
          to label %invoke.cont unwind label %lpad

invoke.cont:                                      ; preds = %cond.false
  %call5 = invoke noundef nonnull align 8 dereferenceable(8) ptr @_ZStlsISt11char_traitsIcEERSt13basic_ostreamIcT_ES5_PKc(ptr noundef nonnull align 8 dereferenceable(8) %call, ptr noundef @.str.1)
          to label %invoke.cont4 unwind label %lpad

invoke.cont4:                                     ; preds = %invoke.cont
  invoke void @_ZN6google17LogMessageVoidifyanERSo(ptr noundef nonnull align 1 dereferenceable(1) %ref.tmp, ptr noundef nonnull align 8 dereferenceable(8) %call5)
          to label %invoke.cont6 unwind label %lpad

invoke.cont6:                                     ; preds = %invoke.cont4
  br label %cond.end

cond.end:                                         ; preds = %invoke.cont6, %cond.true
  %cleanup.is_active = load i1, ptr %cleanup.cond, align 1
  br i1 %cleanup.is_active, label %cleanup.action, label %cleanup.done

cleanup.action:                                   ; preds = %cond.end
  call void @_ZN6google15LogMessageFatalD1Ev(ptr noundef nonnull align 8 dereferenceable(96) %ref.tmp3) #7
  unreachable

lpad:                                             ; preds = %invoke.cont4, %invoke.cont, %cond.false
  %3 = landingpad { ptr, i32 }
          cleanup
  %4 = extractvalue { ptr, i32 } %3, 0
  store ptr %4, ptr %exn.slot, align 8
  %5 = extractvalue { ptr, i32 } %3, 1
  store i32 %5, ptr %ehselector.slot, align 4
  %cleanup.is_active7 = load i1, ptr %cleanup.cond, align 1
  br i1 %cleanup.is_active7, label %cleanup.action8, label %cleanup.done9

6:                                                ; No predecessors!
  br label %cleanup.done

cleanup.done:                                     ; preds = %6, %cond.end
  %7 = load double, ptr %rate.addr, align 8
  %rate_ = getelementptr inbounds %"class.proxygen::Sampling", ptr %this1, i32 0, i32 1
  store double %7, ptr %rate_, align 8
  %8 = load double, ptr %rate.addr, align 8
  %call10 = call noundef i32 @_ZN8proxygen8Sampling12rateToWeightEd(double noundef %8)
  %weight_ = getelementptr inbounds %"class.proxygen::Sampling", ptr %this1, i32 0, i32 2
  store i32 %call10, ptr %weight_, align 8
  ret void

cleanup.action8:                                  ; preds = %lpad
  call void @_ZN6google15LogMessageFatalD1Ev(ptr noundef nonnull align 8 dereferenceable(96) %ref.tmp3) #7
  unreachable

9:                                                ; No predecessors!
  br label %cleanup.done9

cleanup.done9:                                    ; preds = %9, %lpad
  br label %eh.resume

eh.resume:                                        ; preds = %cleanup.done9
  %exn = load ptr, ptr %exn.slot, align 8
  %sel = load i32, ptr %ehselector.slot, align 4
  %lpad.val = insertvalue { ptr, i32 } poison, ptr %exn, 0
  %lpad.val11 = insertvalue { ptr, i32 } %lpad.val, i32 %sel, 1
  resume { ptr, i32 } %lpad.val11
}

; Function Attrs: mustprogress uwtable
define void @_ZN8proxygen8SamplingC2Ed(ptr noundef nonnull align 8 dereferenceable(20) %this, double noundef %rate) unnamed_addr #0 align 2 {
entry:
  %this.addr = alloca ptr, align 8
  %rate.addr = alloca double, align 8
  store ptr %this, ptr %this.addr, align 8
  store double %rate, ptr %rate.addr, align 8
  %this1 = load ptr, ptr %this.addr, align 8
  store ptr getelementptr inbounds ({ [4 x ptr] }, ptr @_ZTVN8proxygen8SamplingE, i32 0, i32 0, i32 2), ptr %this1, align 8
  %rate_ = getelementptr inbounds %"class.proxygen::Sampling", ptr %this1, i32 0, i32 1
  store double 0.000000e+00, ptr %rate_, align 8
  %weight_ = getelementptr inbounds %"class.proxygen::Sampling", ptr %this1, i32 0, i32 2
  store i32 0, ptr %weight_, align 8
  %0 = load double, ptr %rate.addr, align 8
  call void @_ZN8proxygen8Sampling10updateRateEd(ptr noundef nonnull align 8 dereferenceable(20) %this1, double noundef %0)
  ret void
}