; Function Attrs: mustprogress uwtable
define void @_ZN8proxygen8SamplingC2Ed(ptr nocapture noundef nonnull writeonly align 8 dereferenceable(20) %this, double noundef %rate) unnamed_addr #0 align 2 personality ptr @__gxx_personality_v0 {
entry:
  %ref.tmp3.i = alloca %"class.google::LogMessageFatal", align 8
  store ptr getelementptr inbounds ({ [4 x ptr] }, ptr @_ZTVN8proxygen8SamplingE, i64 0, i32 0, i64 2), ptr %this, align 8
  %rate_ = getelementptr inbounds i8, ptr %this, i64 8
  store double 0.000000e+00, ptr %rate_, align 8
  %weight_ = getelementptr inbounds i8, ptr %this, i64 16
  store i32 0, ptr %weight_, align 8
  call void @llvm.lifetime.start.p0(i64 96, ptr nonnull %ref.tmp3.i)
  %cmp.i = fcmp ult double %rate, 0.000000e+00
  %cmp2.i = fcmp ugt double %rate, 1.000000e+00
  %.not.i = or i1 %cmp.i, %cmp2.i
  br i1 %.not.i, label %cond.false.i, label %cleanup.done.i

cond.false.i:                                     ; preds = %entry
  call void @_ZN6google15LogMessageFatalC1EPKci(ptr noundef nonnull align 8 dereferenceable(96) %ref.tmp3.i, ptr noundef nonnull @.str, i32 noundef 27)
  %call.i = invoke noundef nonnull align 8 dereferenceable(8) ptr @_ZN6google10LogMessage6streamEv(ptr noundef nonnull align 8 dereferenceable(96) %ref.tmp3.i)
          to label %invoke.cont.i unwind label %lpad.i

invoke.cont.i:                                    ; preds = %cond.false.i
  %call5.i = invoke noundef nonnull align 8 dereferenceable(8) ptr @_ZStlsISt11char_traitsIcEERSt13basic_ostreamIcT_ES5_PKc(ptr noundef nonnull align 8 dereferenceable(8) %call.i, ptr noundef nonnull @.str.1)
          to label %cleanup.action.i unwind label %lpad.i

cleanup.action.i:                                 ; preds = %invoke.cont.i
  call void @_ZN6google15LogMessageFatalD1Ev(ptr noundef nonnull align 8 dereferenceable(96) %ref.tmp3.i) #9
  unreachable

lpad.i:                                           ; preds = %invoke.cont.i, %cond.false.i
  %0 = landingpad { ptr, i32 }
          cleanup
  call void @_ZN6google15LogMessageFatalD1Ev(ptr noundef nonnull align 8 dereferenceable(96) %ref.tmp3.i) #9
  unreachable

cleanup.done.i:                                   ; preds = %entry
  store double %rate, ptr %rate_, align 8
  %mul.i.i = fmul double %rate, 1.000000e+06
  %conv.i.i = fptoui double %mul.i.i to i32
  %cmp.i.i = icmp eq i32 %conv.i.i, 0
  br i1 %cmp.i.i, label %_ZN8proxygen8Sampling10updateRateEd.exit, label %if.end.i.i

if.end.i.i:                                       ; preds = %cleanup.done.i
  %div.i.i = udiv i32 1000000, %conv.i.i
  br label %_ZN8proxygen8Sampling10updateRateEd.exit

_ZN8proxygen8Sampling10updateRateEd.exit:         ; preds = %cleanup.done.i, %if.end.i.i
  %retval.0.i.i = phi i32 [ %div.i.i, %if.end.i.i ], [ 0, %cleanup.done.i ]
  store i32 %retval.0.i.i, ptr %weight_, align 8
  call void @llvm.lifetime.end.p0(i64 96, ptr nonnull %ref.tmp3.i)
  ret void
}